; Function Attrs: nofree norecurse nosync nounwind memory(argmem: readwrite) uwtable
define internal void @blend_vline16(ptr noundef captures(none) %0, i32 noundef %1, i32 noundef %2, float noundef %3, float noundef %4, i32 noundef %5, i32 noundef %6) #8 {
  %8 = icmp sgt i32 %1, 0
  br i1 %8, label %.lr.ph, label %._crit_edge

.lr.ph:                                           ; preds = %7
  %9 = sitofp i32 %5 to float
  %10 = sdiv i32 %2, 2
  %11 = mul nsw i32 %6, %10
  %12 = sext i32 %11 to i64
  br label %13

13:                                               ; preds = %.lr.ph, %13
  %.014 = phi i32 [ 0, %.lr.ph ], [ %20, %13 ]
  %.01213 = phi ptr [ %0, %.lr.ph ], [ %19, %13 ]
  %14 = load i16, ptr %.01213, align 2, !tbaa !72
  %15 = uitofp i16 %14 to float
  %16 = fmul nsz float %4, %15
  %17 = tail call nsz float @llvm.fmuladd.f32(float %9, float %3, float %16)
  %18 = fptoui float %17 to i16
  store i16 %18, ptr %.01213, align 2, !tbaa !72
  %19 = getelementptr inbounds i16, ptr %.01213, i64 %12
  %20 = add nsw i32 %.014, %6
  %21 = icmp slt i32 %20, %1
  br i1 %21, label %13, label %._crit_edge, !llvm.loop !240

._crit_edge:                                      ; preds = %13, %7
  ret void
}